target datalayout = "e-m:e-p270:32:32-p271:32:32-p272:64:64-i64:64-i128:128-f80:128-n8:16:32:64-S128"
target triple = "x86_64-pc-linux-gnu"

@proto_register_openwire.ett = internal global [2 x ptr] [ptr @ett_openwire, ptr @ett_openwire_type], align 16
@.str.500 = private unnamed_addr constant [9 x i8] c"OpenWire\00", align 1
@.str.501 = private unnamed_addr constant [9 x i8] c"openwire\00", align 1
@proto_openwire = internal global i32 0, align 4
@openwire_tcp_handle = internal global ptr null, align 8
@.str.502 = private unnamed_addr constant [10 x i8] c"desegment\00", align 1
@.str.503 = private unnamed_addr constant [60 x i8] c"Reassemble Openwire messages spanning multiple TCP segments\00", align 1
@.str.504 = private unnamed_addr constant [209 x i8] c"Whether the Openwire dissector should reassemble messages spanning multiple TCP segments. To use this option, you must also enable \22Allow subdissectors to reassemble TCP streams\22 in the TCP protocol settings.\00", align 1
@openwire_desegment = internal global i32 1, align 4
@.str.505 = private unnamed_addr constant [13 x i8] c"verbose_type\00", align 1
@.str.506 = private unnamed_addr constant [30 x i8] c"Show verbose type information\00", align 1
@.str.507 = private unnamed_addr constant [79 x i8] c"Whether verbose type and length information are displayed in the protocol tree\00", align 1
@openwire_verbose_type = internal global i32 0, align 4

; Function Attrs: nounwind uwtable
define hidden void @proto_register_openwire() #0 {
  %1 = alloca ptr, align 8
  %2 = alloca ptr, align 8
  %3 = call i32 @proto_register_protocol(ptr noundef @.str.500, ptr noundef @.str.500, ptr noundef @.str.501)
  store i32 %3, ptr @proto_openwire, align 4
  %4 = load i32, ptr @proto_openwire, align 4
  call void @proto_register_field_array(i32 noundef %4, ptr noundef @proto_register_openwire.hf, i32 noundef 181)
  call void @proto_register_subtree_array(ptr noundef @proto_register_openwire.ett, i32 noundef 2)
  %5 = load i32, ptr @proto_openwire, align 4
  %6 = call ptr @expert_register_protocol(i32 noundef %5)
  store ptr %6, ptr %2, align 8
  %7 = load ptr, ptr %2, align 8
  call void @expert_register_field_array(ptr noundef %7, ptr noundef @proto_register_openwire.ei, i32 noundef 5)
  %8 = load i32, ptr @proto_openwire, align 4
  %9 = call ptr @register_dissector(ptr noundef @.str.501, ptr noundef @dissect_openwire_tcp, i32 noundef %8)
  store ptr %9, ptr @openwire_tcp_handle, align 8
  %10 = load i32, ptr @proto_openwire, align 4
  %11 = call ptr @prefs_register_protocol(i32 noundef %10, ptr noundef null)
  store ptr %11, ptr %1, align 8
  %12 = load ptr, ptr %1, align 8
  call void @prefs_register_bool_preference(ptr noundef %12, ptr noundef @.str.502, ptr noundef @.str.503, ptr noundef @.str.504, ptr noundef @openwire_desegment)
  %13 = load ptr, ptr %1, align 8
  call void @prefs_register_bool_preference(ptr noundef %13, ptr noundef @.str.505, ptr noundef @.str.506, ptr noundef @.str.507, ptr noundef @openwire_verbose_type)
  ret void
}