; Function Attrs: nounwind uwtable
define hidden void @proto_register_openwire() local_unnamed_addr #0 {
  %1 = tail call i32 @proto_register_protocol(ptr noundef nonnull @.str.500, ptr noundef nonnull @.str.500, ptr noundef nonnull @.str.501) #2
  store i32 %1, ptr @proto_openwire, align 4
  tail call void @proto_register_field_array(i32 noundef %1, ptr noundef nonnull @proto_register_openwire.hf, i32 noundef 181) #2
  tail call void @proto_register_subtree_array(ptr noundef nonnull @proto_register_openwire.ett, i32 noundef 2) #2
  %2 = load i32, ptr @proto_openwire, align 4
  %3 = tail call ptr @expert_register_protocol(i32 noundef %2) #2
  tail call void @expert_register_field_array(ptr noundef %3, ptr noundef nonnull @proto_register_openwire.ei, i32 noundef 5) #2
  %4 = load i32, ptr @proto_openwire, align 4
  %5 = tail call ptr @register_dissector(ptr noundef nonnull @.str.501, ptr noundef nonnull @dissect_openwire_tcp, i32 noundef %4) #2
  store ptr %5, ptr @openwire_tcp_handle, align 8
  %6 = load i32, ptr @proto_openwire, align 4
  %7 = tail call ptr @prefs_register_protocol(i32 noundef %6, ptr noundef null) #2
  tail call void @prefs_register_bool_preference(ptr noundef %7, ptr noundef nonnull @.str.502, ptr noundef nonnull @.str.503, ptr noundef nonnull @.str.504, ptr noundef nonnull @openwire_desegment) #2
  tail call void @prefs_register_bool_preference(ptr noundef %7, ptr noundef nonnull @.str.505, ptr noundef nonnull @.str.506, ptr noundef nonnull @.str.507, ptr noundef nonnull @openwire_verbose_type) #2
  ret void
}